target datalayout = "e-m:e-p270:32:32-p271:32:32-p272:64:64-i64:64-i128:128-f80:128-n8:16:32:64-S128"
target triple = "x86_64-unknown-linux-gnu"

%"class.std::vector" = type { %"struct.std::_Vector_base" }
%"struct.std::_Vector_base" = type { %"struct.std::_Vector_base<folly::Synchronized<facebook::velox::common::SpillStats>, std::allocator<folly::Synchronized<facebook::velox::common::SpillStats>>>::_Vector_impl" }
%"struct.std::_Vector_base<folly::Synchronized<facebook::velox::common::SpillStats>, std::allocator<folly::Synchronized<facebook::velox::common::SpillStats>>>::_Vector_impl" = type { %"struct.std::_Vector_base<folly::Synchronized<facebook::velox::common::SpillStats>, std::allocator<folly::Synchronized<facebook::velox::common::SpillStats>>>::_Vector_impl_data" }
%"struct.std::_Vector_base<folly::Synchronized<facebook::velox::common::SpillStats>, std::allocator<folly::Synchronized<facebook::velox::common::SpillStats>>>::_Vector_impl_data" = type { ptr, ptr, ptr }
%"struct.facebook::velox::common::SpillStats" = type { i64, i64, i64, i64, i32, i64, i64, i64, i64, i64, i64, i64, i64 }
%"struct.std::hash" = type { i8 }
%"class.std::thread::id" = type { i64 }
%"struct.folly::Synchronized" = type <{ %"struct.facebook::velox::common::SpillStats", %"class.folly::SharedMutexImpl", [4 x i8] }>
%"class.folly::SharedMutexImpl" = type { %"struct.std::atomic" }
%"struct.std::atomic" = type { %"struct.std::__atomic_base" }
%"struct.std::__atomic_base" = type { i32 }
%"class.std::allocator.25" = type { i8 }

@_ZZN8facebook5velox6common12_GLOBAL__N_113allSpillStatsEvE14spillStatsList = internal global %"class.std::vector" zeroinitializer, align 8
@_ZGVZN8facebook5velox6common12_GLOBAL__N_113allSpillStatsEvE14spillStatsList = internal global i64 0, align 8
@__dso_handle = external hidden global i8

; Function Attrs: mustprogress nounwind uwtable
define linkonce_odr void @_ZNSt15__new_allocatorIN5folly12SynchronizedIN8facebook5velox6common10SpillStatsENS0_15SharedMutexImplILb0EvSt6atomicNS0_24SharedMutexPolicyDefaultEEEEEED2Ev(ptr noundef nonnull align 1 dereferenceable(1) %this) unnamed_addr #0 comdat align 2 {
entry:
  %this.addr = alloca ptr, align 8
  store ptr %this, ptr %this.addr, align 8
  ret void
}

; Function Attrs: mustprogress nounwind uwtable
define linkonce_odr void @_ZNSt15__new_allocatorIN5folly12SynchronizedIN8facebook5velox6common10SpillStatsENS0_15SharedMutexImplILb0EvSt6atomicNS0_24SharedMutexPolicyDefaultEEEEEEC2Ev(ptr noundef nonnull align 1 dereferenceable(1) %this) unnamed_addr #0 comdat align 2 {
entry:
  %this.addr = alloca ptr, align 8
  store ptr %this, ptr %this.addr, align 8
  ret void
}

; Function Attrs: mustprogress uwtable
define linkonce_odr noundef i64 @_ZNSt10_Hash_impl4hashEPKvmm(ptr noundef %__ptr, i64 noundef %__clength, i64 noundef %__seed) #2 comdat align 2 {
entry:
  %__ptr.addr = alloca ptr, align 8
  %__clength.addr = alloca i64, align 8
  %__seed.addr = alloca i64, align 8
  store ptr %__ptr, ptr %__ptr.addr, align 8
  store i64 %__clength, ptr %__clength.addr, align 8
  store i64 %__seed, ptr %__seed.addr, align 8
  %0 = load ptr, ptr %__ptr.addr, align 8
  %1 = load i64, ptr %__clength.addr, align 8
  %2 = load i64, ptr %__seed.addr, align 8
  %call = call noundef i64 @_ZSt11_Hash_bytesPKvmm(ptr noundef %0, i64 noundef %1, i64 noundef %2)
  ret i64 %call
}

; Function Attrs: mustprogress nounwind uwtable
define linkonce_odr void @_ZNSaIN5folly12SynchronizedIN8facebook5velox6common10SpillStatsENS_15SharedMutexImplILb0EvSt6atomicNS_24SharedMutexPolicyDefaultEEEEEED2Ev(ptr noundef nonnull align 1 dereferenceable(1) %this) unnamed_addr #0 comdat align 2 {
entry:
  %this.addr = alloca ptr, align 8
  store ptr %this, ptr %this.addr, align 8
  %this1 = load ptr, ptr %this.addr, align 8
  call void @_ZNSt15__new_allocatorIN5folly12SynchronizedIN8facebook5velox6common10SpillStatsENS0_15SharedMutexImplILb0EvSt6atomicNS0_24SharedMutexPolicyDefaultEEEEEED2Ev(ptr noundef nonnull align 1 dereferenceable(1) %this1) #9
  ret void
}

; Function Attrs: mustprogress nounwind uwtable
define linkonce_odr void @_ZNSaIN5folly12SynchronizedIN8facebook5velox6common10SpillStatsENS_15SharedMutexImplILb0EvSt6atomicNS_24SharedMutexPolicyDefaultEEEEEEC2Ev(ptr noundef nonnull align 1 dereferenceable(1) %this) unnamed_addr #0 comdat align 2 {
entry:
  %this.addr = alloca ptr, align 8
  store ptr %this, ptr %this.addr, align 8
  %this1 = load ptr, ptr %this.addr, align 8
  call void @_ZNSt15__new_allocatorIN5folly12SynchronizedIN8facebook5velox6common10SpillStatsENS0_15SharedMutexImplILb0EvSt6atomicNS0_24SharedMutexPolicyDefaultEEEEEEC2Ev(ptr noundef nonnull align 1 dereferenceable(1) %this1) #9
  ret void
}

; Function Attrs: mustprogress uwtable
define linkonce_odr noundef i64 @_ZNSt10_Hash_impl4hashImEEmRKT_(ptr noundef nonnull align 8 dereferenceable(8) %__val) #2 comdat align 2 {
entry:
  %__val.addr = alloca ptr, align 8
  store ptr %__val, ptr %__val.addr, align 8
  %0 = load ptr, ptr %__val.addr, align 8
  %call = call noundef i64 @_ZNSt10_Hash_impl4hashEPKvmm(ptr noundef %0, i64 noundef 8, i64 noundef 3339675911)
  ret i64 %call
}

; Function Attrs: mustprogress nounwind uwtable
define linkonce_odr void @_ZNSt6thread2idC2Em(ptr noundef nonnull align 8 dereferenceable(8) %this, i64 noundef %__id) unnamed_addr #0 comdat align 2 {
entry:
  %this.addr = alloca ptr, align 8
  %__id.addr = alloca i64, align 8
  store ptr %this, ptr %this.addr, align 8
  store i64 %__id, ptr %__id.addr, align 8
  %this1 = load ptr, ptr %this.addr, align 8
  %_M_thread = getelementptr inbounds %"class.std::thread::id", ptr %this1, i32 0, i32 0
  %0 = load i64, ptr %__id.addr, align 8
  store i64 %0, ptr %_M_thread, align 8
  ret void
}

; Function Attrs: mustprogress nounwind uwtable
define linkonce_odr noundef nonnull align 8 dereferenceable(108) ptr @_ZNSt6vectorIN5folly12SynchronizedIN8facebook5velox6common10SpillStatsENS0_15SharedMutexImplILb0EvSt6atomicNS0_24SharedMutexPolicyDefaultEEEEESaISA_EEixEm(ptr noundef nonnull align 8 dereferenceable(24) %this, i64 noundef %__n) #0 comdat align 2 {
entry:
  %this.addr = alloca ptr, align 8
  %__n.addr = alloca i64, align 8
  store ptr %this, ptr %this.addr, align 8
  store i64 %__n, ptr %__n.addr, align 8
  %this1 = load ptr, ptr %this.addr, align 8
  %_M_impl = getelementptr inbounds %"struct.std::_Vector_base", ptr %this1, i32 0, i32 0
  %_M_start = getelementptr inbounds %"struct.std::_Vector_base<folly::Synchronized<facebook::velox::common::SpillStats>, std::allocator<folly::Synchronized<facebook::velox::common::SpillStats>>>::_Vector_impl_data", ptr %_M_impl, i32 0, i32 0
  %0 = load ptr, ptr %_M_start, align 8
  %1 = load i64, ptr %__n.addr, align 8
  %add.ptr = getelementptr inbounds %"struct.folly::Synchronized", ptr %0, i64 %1
  ret ptr %add.ptr
}

; Function Attrs: mustprogress nounwind uwtable
define linkonce_odr noundef i64 @_ZNKSt6vectorIN5folly12SynchronizedIN8facebook5velox6common10SpillStatsENS0_15SharedMutexImplILb0EvSt6atomicNS0_24SharedMutexPolicyDefaultEEEEESaISA_EE4sizeEv(ptr noundef nonnull align 8 dereferenceable(24) %this) #0 comdat align 2 {
entry:
  %this.addr = alloca ptr, align 8
  store ptr %this, ptr %this.addr, align 8
  %this1 = load ptr, ptr %this.addr, align 8
  %_M_impl = getelementptr inbounds %"struct.std::_Vector_base", ptr %this1, i32 0, i32 0
  %_M_finish = getelementptr inbounds %"struct.std::_Vector_base<folly::Synchronized<facebook::velox::common::SpillStats>, std::allocator<folly::Synchronized<facebook::velox::common::SpillStats>>>::_Vector_impl_data", ptr %_M_impl, i32 0, i32 1
  %0 = load ptr, ptr %_M_finish, align 8
  %_M_impl2 = getelementptr inbounds %"struct.std::_Vector_base", ptr %this1, i32 0, i32 0
  %_M_start = getelementptr inbounds %"struct.std::_Vector_base<folly::Synchronized<facebook::velox::common::SpillStats>, std::allocator<folly::Synchronized<facebook::velox::common::SpillStats>>>::_Vector_impl_data", ptr %_M_impl2, i32 0, i32 0
  %1 = load ptr, ptr %_M_start, align 8
  %sub.ptr.lhs.cast = ptrtoint ptr %0 to i64
  %sub.ptr.rhs.cast = ptrtoint ptr %1 to i64
  %sub.ptr.sub = sub i64 %sub.ptr.lhs.cast, %sub.ptr.rhs.cast
  %sub.ptr.div = sdiv exact i64 %sub.ptr.sub, 112
  ret i64 %sub.ptr.div
}

; Function Attrs: mustprogress uwtable
define internal noundef nonnull align 8 dereferenceable(24) ptr @_ZN8facebook5velox6common12_GLOBAL__N_113allSpillStatsEv() #2 personality ptr @__gxx_personality_v0 {
entry:
  %ref.tmp = alloca %"class.std::allocator.25", align 1
  %exn.slot = alloca ptr, align 8
  %ehselector.slot = alloca i32, align 4
  %0 = load atomic i8, ptr @_ZGVZN8facebook5velox6common12_GLOBAL__N_113allSpillStatsEvE14spillStatsList acquire, align 8
  %guard.uninitialized = icmp eq i8 %0, 0
  br i1 %guard.uninitialized, label %init.check, label %init.end, !prof !7

init.check:                                       ; preds = %entry
  %1 = call i32 @__cxa_guard_acquire(ptr @_ZGVZN8facebook5velox6common12_GLOBAL__N_113allSpillStatsEvE14spillStatsList) #9
  %tobool = icmp ne i32 %1, 0
  br i1 %tobool, label %init, label %init.end

init:                                             ; preds = %init.check
  %call = call noundef i32 @_ZNSt6thread20hardware_concurrencyEv() #9
  %conv = zext i32 %call to i64
  call void @_ZNSaIN5folly12SynchronizedIN8facebook5velox6common10SpillStatsENS_15SharedMutexImplILb0EvSt6atomicNS_24SharedMutexPolicyDefaultEEEEEEC2Ev(ptr noundef nonnull align 1 dereferenceable(1) %ref.tmp) #9
  invoke void @_ZNSt6vectorIN5folly12SynchronizedIN8facebook5velox6common10SpillStatsENS0_15SharedMutexImplILb0EvSt6atomicNS0_24SharedMutexPolicyDefaultEEEEESaISA_EEC2EmRKSB_(ptr noundef nonnull align 8 dereferenceable(24) @_ZZN8facebook5velox6common12_GLOBAL__N_113allSpillStatsEvE14spillStatsList, i64 noundef %conv, ptr noundef nonnull align 1 dereferenceable(1) %ref.tmp)
          to label %invoke.cont unwind label %lpad

invoke.cont:                                      ; preds = %init
  call void @_ZNSaIN5folly12SynchronizedIN8facebook5velox6common10SpillStatsENS_15SharedMutexImplILb0EvSt6atomicNS_24SharedMutexPolicyDefaultEEEEEED2Ev(ptr noundef nonnull align 1 dereferenceable(1) %ref.tmp) #9
  %2 = call i32 @__cxa_atexit(ptr @_ZNSt6vectorIN5folly12SynchronizedIN8facebook5velox6common10SpillStatsENS0_15SharedMutexImplILb0EvSt6atomicNS0_24SharedMutexPolicyDefaultEEEEESaISA_EED2Ev, ptr @_ZZN8facebook5velox6common12_GLOBAL__N_113allSpillStatsEvE14spillStatsList, ptr @__dso_handle) #9
  call void @__cxa_guard_release(ptr @_ZGVZN8facebook5velox6common12_GLOBAL__N_113allSpillStatsEvE14spillStatsList) #9
  br label %init.end

init.end:                                         ; preds = %invoke.cont, %init.check, %entry
  ret ptr @_ZZN8facebook5velox6common12_GLOBAL__N_113allSpillStatsEvE14spillStatsList

lpad:                                             ; preds = %init
  %3 = landingpad { ptr, i32 }
          cleanup
  %4 = extractvalue { ptr, i32 } %3, 0
  store ptr %4, ptr %exn.slot, align 8
  %5 = extractvalue { ptr, i32 } %3, 1
  store i32 %5, ptr %ehselector.slot, align 4
  call void @_ZNSaIN5folly12SynchronizedIN8facebook5velox6common10SpillStatsENS_15SharedMutexImplILb0EvSt6atomicNS_24SharedMutexPolicyDefaultEEEEEED2Ev(ptr noundef nonnull align 1 dereferenceable(1) %ref.tmp) #9
  call void @__cxa_guard_abort(ptr @_ZGVZN8facebook5velox6common12_GLOBAL__N_113allSpillStatsEvE14spillStatsList) #9
  br label %eh.resume

eh.resume:                                        ; preds = %lpad
  %exn = load ptr, ptr %exn.slot, align 8
  %sel = load i32, ptr %ehselector.slot, align 4
  %lpad.val = insertvalue { ptr, i32 } poison, ptr %exn, 0
  %lpad.val1 = insertvalue { ptr, i32 } %lpad.val, i32 %sel, 1
  resume { ptr, i32 } %lpad.val1
}

; Function Attrs: mustprogress nounwind uwtable
define linkonce_odr noundef i64 @_ZNKSt4hashINSt6thread2idEEclERKS1_(ptr noundef nonnull align 1 dereferenceable(1) %this, ptr noundef nonnull align 8 dereferenceable(8) %__id) #0 comdat align 2 personality ptr @__gxx_personality_v0 {
entry:
  %this.addr = alloca ptr, align 8
  %__id.addr = alloca ptr, align 8
  store ptr %this, ptr %this.addr, align 8
  store ptr %__id, ptr %__id.addr, align 8
  %0 = load ptr, ptr %__id.addr, align 8
  %_M_thread = getelementptr inbounds %"class.std::thread::id", ptr %0, i32 0, i32 0
  %call = invoke noundef i64 @_ZNSt10_Hash_impl4hashImEEmRKT_(ptr noundef nonnull align 8 dereferenceable(8) %_M_thread)
          to label %invoke.cont unwind label %terminate.lpad

invoke.cont:                                      ; preds = %entry
  ret i64 %call

terminate.lpad:                                   ; preds = %entry
  %1 = landingpad { ptr, i32 }
          catch ptr null
  %2 = extractvalue { ptr, i32 } %1, 0
  call void @__clang_call_terminate(ptr %2) #19
  unreachable
}

; Function Attrs: mustprogress nounwind uwtable
define linkonce_odr i64 @_ZNSt11this_thread6get_idEv() #0 comdat personality ptr @__gxx_personality_v0 {
entry:
  %retval = alloca %"class.std::thread::id", align 8
  %call = call i64 @pthread_self() #20
  invoke void @_ZNSt6thread2idC2Em(ptr noundef nonnull align 8 dereferenceable(8) %retval, i64 noundef %call)
          to label %invoke.cont unwind label %terminate.lpad

invoke.cont:                                      ; preds = %entry
  %coerce.dive = getelementptr inbounds %"class.std::thread::id", ptr %retval, i32 0, i32 0
  %0 = load i64, ptr %coerce.dive, align 8
  ret i64 %0

terminate.lpad:                                   ; preds = %entry
  %1 = landingpad { ptr, i32 }
          catch ptr null
  %2 = extractvalue { ptr, i32 } %1, 0
  call void @__clang_call_terminate(ptr %2) #19
  unreachable
}

; Function Attrs: mustprogress uwtable
define internal noundef nonnull align 8 dereferenceable(108) ptr @_ZN8facebook5velox6common12_GLOBAL__N_115localSpillStatsEv() #2 {
entry:
  %idx = alloca i64, align 8
  %ref.tmp = alloca %"struct.std::hash", align 1
  %ref.tmp1 = alloca %"class.std::thread::id", align 8
  %spillStatsVector = alloca ptr, align 8
  %call = call i64 @_ZNSt11this_thread6get_idEv() #9
  %coerce.dive = getelementptr inbounds %"class.std::thread::id", ptr %ref.tmp1, i32 0, i32 0
  store i64 %call, ptr %coerce.dive, align 8
  %call2 = call noundef i64 @_ZNKSt4hashINSt6thread2idEEclERKS1_(ptr noundef nonnull align 1 dereferenceable(1) %ref.tmp, ptr noundef nonnull align 8 dereferenceable(8) %ref.tmp1) #9
  store i64 %call2, ptr %idx, align 8
  %call3 = call noundef nonnull align 8 dereferenceable(24) ptr @_ZN8facebook5velox6common12_GLOBAL__N_113allSpillStatsEv()
  store ptr %call3, ptr %spillStatsVector, align 8
  %0 = load ptr, ptr %spillStatsVector, align 8
  %1 = load i64, ptr %idx, align 8
  %2 = load ptr, ptr %spillStatsVector, align 8
  %call4 = call noundef i64 @_ZNKSt6vectorIN5folly12SynchronizedIN8facebook5velox6common10SpillStatsENS0_15SharedMutexImplILb0EvSt6atomicNS0_24SharedMutexPolicyDefaultEEEEESaISA_EE4sizeEv(ptr noundef nonnull align 8 dereferenceable(24) %2) #9
  %rem = urem i64 %1, %call4
  %call5 = call noundef nonnull align 8 dereferenceable(108) ptr @_ZNSt6vectorIN5folly12SynchronizedIN8facebook5velox6common10SpillStatsENS0_15SharedMutexImplILb0EvSt6atomicNS0_24SharedMutexPolicyDefaultEEEEESaISA_EEixEm(ptr noundef nonnull align 8 dereferenceable(24) %0, i64 noundef %rem) #9
  ret ptr %call5
}