; Function Attrs: mustprogress uwtable
define internal fastcc noundef nonnull align 8 dereferenceable(108) ptr @_ZN8facebook5velox6common12_GLOBAL__N_115localSpillStatsEv() unnamed_addr #5 personality ptr @__gxx_personality_v0 {
entry:
  %ref.tmp.i = alloca %"class.std::allocator.25", align 1
  %ref.tmp1 = alloca %"class.std::thread::id", align 8
  %call.i = tail call i64 @pthread_self() #28
  store i64 %call.i, ptr %ref.tmp1, align 8
  %call.i.i1.i = invoke noundef i64 @_ZSt11_Hash_bytesPKvmm(ptr noundef nonnull %ref.tmp1, i64 noundef 8, i64 noundef 3339675911)
          to label %_ZNKSt4hashINSt6thread2idEEclERKS1_.exit unwind label %terminate.lpad.i

terminate.lpad.i:                                 ; preds = %entry
  %0 = landingpad { ptr, i32 }
          catch ptr null
  %1 = extractvalue { ptr, i32 } %0, 0
  call void @__clang_call_terminate(ptr %1) #27
  unreachable

_ZNKSt4hashINSt6thread2idEEclERKS1_.exit:         ; preds = %entry
  call void @llvm.lifetime.start.p0(i64 1, ptr nonnull %ref.tmp.i)
  %2 = load atomic i8, ptr @_ZGVZN8facebook5velox6common12_GLOBAL__N_113allSpillStatsEvE14spillStatsList acquire, align 8
  %guard.uninitialized.i = icmp eq i8 %2, 0
  br i1 %guard.uninitialized.i, label %init.check.i, label %_ZN8facebook5velox6common12_GLOBAL__N_113allSpillStatsEv.exit, !prof !7

init.check.i:                                     ; preds = %_ZNKSt4hashINSt6thread2idEEclERKS1_.exit
  %3 = call i32 @__cxa_guard_acquire(ptr nonnull @_ZGVZN8facebook5velox6common12_GLOBAL__N_113allSpillStatsEvE14spillStatsList) #26
  %tobool.not.i = icmp eq i32 %3, 0
  br i1 %tobool.not.i, label %_ZN8facebook5velox6common12_GLOBAL__N_113allSpillStatsEv.exit, label %init.i

init.i:                                           ; preds = %init.check.i
  %call.i2 = call noundef i32 @_ZNSt6thread20hardware_concurrencyEv() #26
  %conv.i = zext i32 %call.i2 to i64
  invoke void @_ZNSt6vectorIN5folly12SynchronizedIN8facebook5velox6common10SpillStatsENS0_15SharedMutexImplILb0EvSt6atomicNS0_24SharedMutexPolicyDefaultEEEEESaISA_EEC2EmRKSB_(ptr noundef nonnull align 8 dereferenceable(24) @_ZZN8facebook5velox6common12_GLOBAL__N_113allSpillStatsEvE14spillStatsList, i64 noundef %conv.i, ptr noundef nonnull align 1 dereferenceable(1) %ref.tmp.i)
          to label %invoke.cont.i unwind label %lpad.i

invoke.cont.i:                                    ; preds = %init.i
  %4 = call i32 @__cxa_atexit(ptr nonnull @_ZNSt6vectorIN5folly12SynchronizedIN8facebook5velox6common10SpillStatsENS0_15SharedMutexImplILb0EvSt6atomicNS0_24SharedMutexPolicyDefaultEEEEESaISA_EED2Ev, ptr nonnull @_ZZN8facebook5velox6common12_GLOBAL__N_113allSpillStatsEvE14spillStatsList, ptr nonnull @__dso_handle) #26
  call void @__cxa_guard_release(ptr nonnull @_ZGVZN8facebook5velox6common12_GLOBAL__N_113allSpillStatsEvE14spillStatsList) #26
  br label %_ZN8facebook5velox6common12_GLOBAL__N_113allSpillStatsEv.exit

lpad.i:                                           ; preds = %init.i
  %5 = landingpad { ptr, i32 }
          cleanup
  call void @__cxa_guard_abort(ptr nonnull @_ZGVZN8facebook5velox6common12_GLOBAL__N_113allSpillStatsEvE14spillStatsList) #26
  resume { ptr, i32 } %5

_ZN8facebook5velox6common12_GLOBAL__N_113allSpillStatsEv.exit: ; preds = %_ZNKSt4hashINSt6thread2idEEclERKS1_.exit, %init.check.i, %invoke.cont.i
  call void @llvm.lifetime.end.p0(i64 1, ptr nonnull %ref.tmp.i)
  %6 = load ptr, ptr getelementptr inbounds (%"class.std::vector", ptr @_ZZN8facebook5velox6common12_GLOBAL__N_113allSpillStatsEvE14spillStatsList, i64 0, i32 0, i32 0, i32 0, i32 1), align 8
  %7 = load ptr, ptr @_ZZN8facebook5velox6common12_GLOBAL__N_113allSpillStatsEvE14spillStatsList, align 8
  %sub.ptr.lhs.cast.i = ptrtoint ptr %6 to i64
  %sub.ptr.rhs.cast.i = ptrtoint ptr %7 to i64
  %sub.ptr.sub.i = sub i64 %sub.ptr.lhs.cast.i, %sub.ptr.rhs.cast.i
  %sub.ptr.div.i = sdiv exact i64 %sub.ptr.sub.i, 112
  %rem = urem i64 %call.i.i1.i, %sub.ptr.div.i
  %add.ptr.i = getelementptr inbounds %"struct.folly::Synchronized", ptr %7, i64 %rem
  ret ptr %add.ptr.i
}